; Function Attrs: mustprogress uwtable
define hidden void @_ZN3sls7context10add_clauseERK7svectorIN3sat7literalEjE(ptr noundef nonnull align 8 captures(none) dereferenceable(321) initializes((157, 158)) %0, ptr noundef nonnull readonly align 8 captures(none) dereferenceable(8) %1) local_unnamed_addr #4 align 2 {
  %3 = getelementptr inbounds nuw i8, ptr %0, i64 8
  %4 = load ptr, ptr %3, align 8, !tbaa !148
  %5 = load ptr, ptr %1, align 8, !tbaa !67
  %6 = icmp eq ptr %5, null
  br i1 %6, label %_ZNK6vectorIN3sat7literalELb0EjE4sizeEv.exit, label %7

7:                                                ; preds = %2
  %8 = getelementptr inbounds i8, ptr %5, i64 -4
  %9 = load i32, ptr %8, align 4, !tbaa !58
  br label %_ZNK6vectorIN3sat7literalELb0EjE4sizeEv.exit

_ZNK6vectorIN3sat7literalELb0EjE4sizeEv.exit:     ; preds = %2, %7
  %.0.i = phi i32 [ %9, %7 ], [ 0, %2 ]
  %10 = load ptr, ptr %4, align 8, !tbaa !3
  %11 = getelementptr inbounds nuw i8, ptr %10, i64 144
  %12 = load ptr, ptr %11, align 8
  tail call void %12(ptr noundef nonnull align 8 dereferenceable(8) %4, i32 noundef %.0.i, ptr noundef %5)
  %13 = getelementptr inbounds nuw i8, ptr %0, i64 157
  store i8 1, ptr %13, align 1, !tbaa !149
  %14 = getelementptr inbounds nuw i8, ptr %0, i64 296
  %15 = load i32, ptr %14, align 8, !tbaa !284
  %16 = add i32 %15, 1
  store i32 %16, ptr %14, align 8, !tbaa !284
  ret void
}